; Function Attrs: nounwind uwtable
define internal fastcc void @getRelationIdentity(ptr noundef nonnull %0, i32 noundef %1, ptr noundef writeonly captures(address_is_null) %2, i1 noundef zeroext %3) unnamed_addr #0 {
  %5 = zext i32 %1 to i64
  %6 = tail call ptr @SearchSysCache1(i32 noundef 57, i64 noundef %5) #11
  %.not = icmp eq ptr %6, null
  br i1 %.not, label %7, label %13

7:                                                ; preds = %4
  br i1 %3, label %11, label %8

8:                                                ; preds = %7
  %9 = tail call zeroext i1 @errstart_cold(i32 noundef 21, ptr noundef null) #12
  tail call void @llvm.assume(i1 %9)
  %10 = tail call i32 (ptr, ...) @errmsg_internal(ptr noundef nonnull @.str.232, i32 noundef %1) #11
  tail call void @errfinish(ptr noundef nonnull @.str.1, i32 noundef 6095, ptr noundef nonnull @__func__.getRelationIdentity) #11
  unreachable

11:                                               ; preds = %7
  %.not17 = icmp eq ptr %2, null
  br i1 %.not17, label %28, label %12

12:                                               ; preds = %11
  store ptr null, ptr %2, align 8
  br label %28

13:                                               ; preds = %4
  %14 = getelementptr i8, ptr %6, i64 16
  %.val = load ptr, ptr %14, align 8
  %15 = getelementptr inbounds nuw i8, ptr %.val, i64 22
  %16 = load i8, ptr %15, align 2
  %17 = zext i8 %16 to i64
  %18 = getelementptr inbounds nuw i8, ptr %.val, i64 %17
  %19 = getelementptr inbounds nuw i8, ptr %18, i64 68
  %20 = load i32, ptr %19, align 4
  %21 = tail call ptr @get_namespace_name_or_temp(i32 noundef %20) #11
  %22 = getelementptr inbounds nuw i8, ptr %18, i64 4
  %23 = tail call ptr @quote_qualified_identifier(ptr noundef %21, ptr noundef nonnull %22) #11
  tail call void @appendStringInfoString(ptr noundef nonnull %0, ptr noundef %23) #11
  %.not18 = icmp eq ptr %2, null
  br i1 %.not18, label %27, label %24

24:                                               ; preds = %13
  %25 = tail call ptr @pstrdup(ptr noundef nonnull %22) #11
  %26 = tail call ptr @list_make2_impl(i32 noundef 1, ptr %21, ptr %25) #11
  store ptr %26, ptr %2, align 8
  br label %27

27:                                               ; preds = %24, %13
  tail call void @ReleaseSysCache(ptr noundef nonnull %6) #11
  br label %28

28:                                               ; preds = %11, %12, %27
  ret void
}